Certificate:
    Data:
        Version: 3 (0x2)
        Serial Number:
            3b:f4:0c:29:d3:5a:78:a0:40:35:4b:81:28:8e:dd:3e
        Signature Algorithm: sha1WithRSAEncryption
        Issuer: C=US, O=Adobe Systems Incorporated, OU=Adobe Trust Services, CN=Adobe AUM
        Validity
            Not Before: Sep 15 07:29:45 2004 GMT
            Not After : Sep 15 07:39:30 2014 GMT
        Subject: C=US, O=Adobe Systems Incorporated, OU=Adobe Trust Services, CN=Adobe AUM
        Subject Public Key Info:
            Public Key Algorithm: rsaEncryption
            RSA Public Key: (2048 bit)
                Modulus (2048 bit):
                    00:bd:f4:f1:3a:bd:ed:cb:1f:eb:c0:9d:f6:66:f4:
                    3b:fc:21:c7:7c:2a:59:5e:e5:2e:12:f3:f1:16:78:
                    05:f5:a4:44:62:af:a7:59:e6:1a:f7:56:db:ad:a9:
                    c9:bc:d8:48:4f:e5:08:fa:dc:7b:ea:9f:95:e7:6f:
                    62:59:dd:04:54:9d:38:18:1c:31:a6:4d:5e:29:b0:
                    35:d7:3c:7a:5e:b6:1b:e4:48:be:09:41:d4:99:88:
                    6a:de:57:a2:7a:a5:4b:e7:e7:15:8d:0b:0c:7b:ae:
                    79:b1:cd:cd:c7:48:a6:71:b7:33:ea:c7:17:43:47:
                    7d:34:1d:34:c3:e2:fd:c2:c8:aa:9b:65:76:f1:f8:
                    6d:a0:bb:3a:57:4b:73:4d:fc:00:77:5e:a7:de:b0:
                    97:2f:f3:ce:ad:4f:4a:ce:70:fd:a3:c7:99:c0:6f:
                    4a:b1:c1:27:db:7a:27:23:a6:c5:6e:c4:8e:fb:cd:
                    e5:bc:8d:c9:bf:5c:cb:65:93:56:e9:5f:ad:ff:c7:
                    63:55:20:8c:96:55:64:df:ab:be:cf:3a:2b:61:6c:
                    7d:f6:8e:f0:25:24:e5:e4:f0:c9:42:ef:d6:e1:e9:
                    9b:68:5f:6b:e6:dc:76:df:05:27:2f:f7:5d:c6:eb:
                    86:a8:e0:20:95:be:1a:01:d1:2d:28:68:55:fc:95:
                    99:11
                Exponent: 65537 (0x10001)
        X509v3 extensions:
            1.3.6.1.4.1.311.20.2: 
                ...C.A
            X509v3 Key Usage: 
                Digital Signature, Certificate Sign, CRL Sign
            X509v3 Basic Constraints: critical
                CA:TRUE
            X509v3 Subject Key Identifier: 
                40:D5:EF:4E:53:B6:94:FA:D2:92:1A:58:0D:FE:D2:A2:5D:14:7B:D2
            X509v3 CRL Distribution Points: 
                URI:ldap:///CN=Adobe%20AUM,CN=aumrootca,CN=CDP,CN=Public%20Key%20Services,CN=Services,CN=Configuration,DC=AdobePKI,DC=local?certificateRevocationList?base?objectClass=cRLDistributionPoint
                URI:http://aumrootca.adobepki.local/CertEnroll/Adobe%20AUM.crl

            1.3.6.1.4.1.311.21.1: 
                ...
    Signature Algorithm: sha1WithRSAEncryption
        09:15:60:9a:ec:ec:af:2b:64:ab:0d:d0:62:f0:0d:65:c3:fc:
        b9:cd:fe:ce:7e:e1:9e:5a:85:e4:c6:07:64:b9:a7:9f:c2:97:
        7f:2e:7c:89:9c:36:bc:83:07:c8:80:66:a2:76:59:1c:38:1e:
        a6:b3:43:ec:ec:75:19:0f:8f:bf:db:4c:65:de:8f:67:c5:80:
        22:04:ce:18:c5:05:ba:7a:65:60:87:7d:81:74:02:60:2c:30:
        eb:05:16:2e:5e:4e:fb:dd:49:30:d7:26:cf:34:93:e8:be:25:
        ed:47:f8:ad:86:e6:34:cd:f0:5d:42:21:3c:08:0d:21:0f:e9:
        2c:0a:08:57:de:8c:6f:c1:26:38:0a:03:9f:2f:06:8c:96:a1:
        c2:16:3a:e3:dd:66:a0:9a:02:e9:a3:41:f0:23:b0:41:c7:36:
        d3:76:23:95:40:31:7d:9a:43:83:fb:66:8a:a3:ab:5b:cf:d4:
        c9:8e:bc:6a:4b:8e:b1:96:0e:6a:db:37:24:2f:b2:e3:6a:7a:
        5c:99:cb:34:2a:19:ec:8a:18:53:79:c7:ab:c2:cb:7c:7d:68:
        e2:4a:a4:54:8d:dd:56:a3:dd:bf:ab:75:21:51:e6:4d:ed:b6:
        4f:31:98:0e:e9:c0:af:e9:c9:69:b0:6a:f1:01:24:6c:bf:dd:
        d4:fd:8d:10
-----BEGIN CERTIFICATE-----
MIIEzTCCA7WgAwIBAgIQO/QMKdNaeKBANUuBKI7dPjANBgkqhkiG9w0BAQUFADBl
MQswCQYDVQQGEwJVUzEjMCEGA1UEChMaQWRvYmUgU3lzdGVtcyBJbmNvcnBvcmF0
ZWQxHTAbBgNVBAsTFEFkb2JlIFRydXN0IFNlcnZpY2VzMRIwEAYDVQQDEwlBZG9i
ZSBBVU0wHhcNMDQwOTE1MDcyOTQ1WhcNMTQwOTE1MDczOTMwWjBlMQswCQYDVQQG
EwJVUzEjMCEGA1UEChMaQWRvYmUgU3lzdGVtcyBJbmNvcnBvcmF0ZWQxHTAbBgNV
BAsTFEFkb2JlIFRydXN0IFNlcnZpY2VzMRIwEAYDVQQDEwlBZG9iZSBBVU0wggEi
MA0GCSqGSIb3DQEBAQUAA4IBDwAwggEKAoIBAQC99PE6ve3LH+vAnfZm9Dv8Icd8
Klle5S4S8/EWeAX1pERir6dZ5hr3Vtutqcm82EhP5Qj63Hvqn5Xnb2JZ3QRUnTgY
HDGmTV4psDXXPHpethvkSL4JQdSZiGreV6J6pUvn5xWNCwx7rnmxzc3HSKZxtzPq
xxdDR300HTTD4v3CyKqbZXbx+G2guzpXS3NN/AB3XqfesJcv886tT0rOcP2jx5nA
b0qxwSfbeicjpsVuxI77zeW8jcm/XMtlk1bpX63/x2NVIIyWVWTfq77POithbH32
jvAlJOXk8MlC79bh6ZtoX2vm3HbfBScv913G64ao4CCVvhoB0S0oaFX8lZkRAgMB
AAGjggF3MIIBczATBgkrBgEEAYI3FAIEBh4EAEMAQTALBgNVHQ8EBAMCAYYwDwYD
VR0TAQH/BAUwAwEB/zAdBgNVHQ4EFgQUQNXvTlO2lPrSkhpYDf7Sol0Ue9IwggEL
BgNVHR8EggECMIH/MIH8oIH5oIH2hoG3bGRhcDovLy9DTj1BZG9iZSUyMEFVTSxD
Tj1hdW1yb290Y2EsQ049Q0RQLENOPVB1YmxpYyUyMEtleSUyMFNlcnZpY2VzLENO
PVNlcnZpY2VzLENOPUNvbmZpZ3VyYXRpb24sREM9QWRvYmVQS0ksREM9bG9jYWw/
Y2VydGlmaWNhdGVSZXZvY2F0aW9uTGlzdD9iYXNlP29iamVjdENsYXNzPWNSTERp
c3RyaWJ1dGlvblBvaW50hjpodHRwOi8vYXVtcm9vdGNhLmFkb2JlcGtpLmxvY2Fs
L0NlcnRFbnJvbGwvQWRvYmUlMjBBVU0uY3JsMBAGCSsGAQQBgjcVAQQDAgEAMA0G
CSqGSIb3DQEBBQUAA4IBAQAJFWCa7OyvK2SrDdBi8A1lw/y5zf7OfuGeWoXkxgdk
uaefwpd/LnyJnDa8gwfIgGaidlkcOB6ms0Ps7HUZD4+/20xl3o9nxYAiBM4YxQW6
emVgh32BdAJgLDDrBRYuXk773Ukw1ybPNJPoviXtR/ithuY0zfBdQiE8CA0hD+ks
CghX3oxvwSY4CgOfLwaMlqHCFjrj3WagmgLpo0HwI7BBxzbTdiOVQDF9mkOD+2aK
o6tbz9TJjrxqS46xlg5q2zckL7Ljanpcmcs0KhnsihhTecerwst8fWjiSqRUjd1W
o92/q3UhUeZN7bZPMZgO6cCv6clpsGrxASRsv93U/Y0Q
-----END CERTIFICATE-----
