Certificate:
    Data:
        Version: 3 (0x2)
        Serial Number:
            d9:6f:db:ad:33:69:ce:63
        Signature Algorithm: sha1WithRSAEncryption
        Issuer: C=DE, ST=Berlin, L=Berlin, O=AVM GmbH, OU=Euro-DOCSIS, OU=Germany, CN=AVM GmbH Cable Modem Root Certificate Authority
        Validity
            Not Before: Jan 20 13:28:06 2010 GMT
            Not After : Jun  7 13:28:06 2037 GMT
        Subject: C=DE, O=AVM GmbH, OU=Euro-DOCSIS, CN=00:04:0E:C4:AE:94
        Subject Public Key Info:
            Public Key Algorithm: rsaEncryption
            RSA Public Key: (1024 bit)
                Modulus (1024 bit):
                    00:d5:73:b6:23:c6:23:ff:97:25:84:21:b7:25:f1:
                    8f:f7:c1:ae:dc:13:ea:56:69:c1:f4:9c:74:d7:b8:
                    50:74:2b:0b:4c:56:0f:ab:8e:b3:8e:04:26:74:e6:
                    7c:8d:23:2e:34:74:6c:cc:d6:d6:81:b1:ba:1a:ed:
                    80:fa:fd:c5:65:09:23:5e:6d:b9:15:9e:52:9f:d2:
                    66:f7:3d:b9:4b:2b:ef:ab:80:72:26:47:24:17:35:
                    c9:2a:c7:df:53:a6:15:c0:f4:b7:bc:40:37:29:51:
                    c5:50:9a:90:d8:af:56:42:9a:07:3c:8c:77:f0:93:
                    09:c8:0b:52:7a:3d:64:5f:d9
                Exponent: 65537 (0x10001)
    Signature Algorithm: sha1WithRSAEncryption
        27:64:a3:d5:76:d2:86:32:6e:c0:e5:45:39:1f:2a:1a:04:d9:
        46:d9:92:ee:71:a1:7d:07:77:ac:1a:0f:2a:e2:a1:3c:d2:aa:
        13:e2:df:55:6a:3c:93:54:e4:63:b8:5d:3c:6b:97:3b:b2:2e:
        e6:c0:17:6c:6b:e2:0c:ea:66:48:42:02:f3:41:d2:cc:ca:ed:
        64:a6:b9:78:97:b3:df:87:75:61:fb:86:49:18:03:86:7c:4c:
        89:cc:ba:6b:6d:ad:6c:4b:da:ad:1c:65:b8:42:9d:ad:c5:b1:
        35:60:36:b4:e2:1f:a3:c9:74:e4:34:3a:b5:d2:d6:1c:80:97:
        4d:8f:b3:ab:c4:35:95:c4:ca:e5:93:2b:dc:36:54:51:04:d3:
        ea:34:c6:2f:7b:fd:7e:24:04:35:9d:c2:6b:59:e0:ef:dc:0e:
        6b:27:96:d3:9c:63:87:4d:c3:17:b6:4b:24:39:25:08:4e:d8:
        0e:14:8f:a9:8d:63:ff:74:d3:62:de:d7:11:71:e6:fd:fc:94:
        0d:77:27:9f:a3:e5:4c:84:9b:7a:d0:4b:6e:ba:b6:d5:35:9b:
        97:2f:c4:ff:b9:6b:fa:de:50:2f:38:12:4f:40:2c:55:8c:e7:
        db:42:fc:df:f9:65:74:52:81:42:b0:88:c8:9b:0f:9b:09:93:
        de:ae:e1:19
-----BEGIN CERTIFICATE-----
MIIC9DCCAdygAwIBAgIJANlv260zac5jMA0GCSqGSIb3DQEBBQUAMIGkMQswCQYD
VQQGEwJERTEPMA0GA1UECBMGQmVybGluMQ8wDQYDVQQHEwZCZXJsaW4xETAPBgNV
BAoTCEFWTSBHbWJIMRQwEgYDVQQLEwtFdXJvLURPQ1NJUzEQMA4GA1UECxMHR2Vy
bWFueTE4MDYGA1UEAxMvQVZNIEdtYkggQ2FibGUgTW9kZW0gUm9vdCBDZXJ0aWZp
Y2F0ZSBBdXRob3JpdHkwHhcNMTAwMTIwMTMyODA2WhcNMzcwNjA3MTMyODA2WjBS
MQswCQYDVQQGEwJERTERMA8GA1UEChMIQVZNIEdtYkgxFDASBgNVBAsTC0V1cm8t
RE9DU0lTMRowGAYDVQQDExEwMDowNDowRTpDNDpBRTo5NDCBnzANBgkqhkiG9w0B
AQEFAAOBjQAwgYkCgYEA1XO2I8Yj/5clhCG3JfGP98Gu3BPqVmnB9Jx017hQdCsL
TFYPq46zjgQmdOZ8jSMuNHRszNbWgbG6Gu2A+v3FZQkjXm25FZ5Sn9Jm9z25Syvv
q4ByJkckFzXJKsffU6YVwPS3vEA3KVHFUJqQ2K9WQpoHPIx38JMJyAtSej1kX9kC
AwEAATANBgkqhkiG9w0BAQUFAAOCAQEAJ2Sj1XbShjJuwOVFOR8qGgTZRtmS7nGh
fQd3rBoPKuKhPNKqE+LfVWo8k1TkY7hdPGuXO7Iu5sAXbGviDOpmSEIC80HSzMrt
ZKa5eJez34d1YfuGSRgDhnxMicy6a22tbEvarRxluEKdrcWxNWA2tOIfo8l05DQ6
tdLWHICXTY+zq8Q1lcTK5ZMr3DZUUQTT6jTGL3v9fiQENZ3Ca1ng79wOayeW05xj
h03DF7ZLJDklCE7YDhSPqY1j/3TTYt7XEXHm/fyUDXcnn6PlTISbetBLbrq21TWb
ly/E/7lr+t5QLzgST0AsVYzn20L83/lldFKBQrCIyJsPmwmT3q7hGQ==
-----END CERTIFICATE-----
